target datalayout = "e-m:e-p270:32:32-p271:32:32-p272:64:64-i64:64-i128:128-f80:128-n8:16:32:64-S128"
target triple = "x86_64-pc-linux-gnu"

%"class.gmx::AnalysisDataFrameAverager" = type <{ %"class.std::vector", i8, [7 x i8] }>
%"class.std::vector" = type { %"struct.std::_Vector_base" }
%"struct.std::_Vector_base" = type { %"struct.std::_Vector_base<gmx::AnalysisDataFrameAverager::AverageItem, std::allocator<gmx::AnalysisDataFrameAverager::AverageItem>>::_Vector_impl" }
%"struct.std::_Vector_base<gmx::AnalysisDataFrameAverager::AverageItem, std::allocator<gmx::AnalysisDataFrameAverager::AverageItem>>::_Vector_impl" = type { %"struct.std::_Vector_base<gmx::AnalysisDataFrameAverager::AverageItem, std::allocator<gmx::AnalysisDataFrameAverager::AverageItem>>::_Vector_impl_data" }
%"struct.std::_Vector_base<gmx::AnalysisDataFrameAverager::AverageItem, std::allocator<gmx::AnalysisDataFrameAverager::AverageItem>>::_Vector_impl_data" = type { ptr, ptr, ptr }
%"struct.gmx::AnalysisDataFrameAverager::AverageItem" = type <{ double, double, i32, [4 x i8] }>

; Function Attrs: mustprogress nounwind uwtable
define linkonce_odr noundef nonnull align 8 dereferenceable(20) ptr @_ZNSt6vectorIN3gmx25AnalysisDataFrameAverager11AverageItemESaIS2_EEixEm(ptr noundef nonnull align 8 dereferenceable(24) %0, i64 noundef %1) #1 comdat align 2 {
  %3 = alloca ptr, align 8
  %4 = alloca i64, align 8
  store ptr %0, ptr %3, align 8
  store i64 %1, ptr %4, align 8
  %5 = load ptr, ptr %3, align 8
  %6 = getelementptr inbounds %"struct.std::_Vector_base", ptr %5, i32 0, i32 0
  %7 = getelementptr inbounds %"struct.std::_Vector_base<gmx::AnalysisDataFrameAverager::AverageItem, std::allocator<gmx::AnalysisDataFrameAverager::AverageItem>>::_Vector_impl_data", ptr %6, i32 0, i32 0
  %8 = load ptr, ptr %7, align 8
  %9 = load i64, ptr %4, align 8
  %10 = getelementptr inbounds %"struct.gmx::AnalysisDataFrameAverager::AverageItem", ptr %8, i64 %9
  ret ptr %10
}

; Function Attrs: mustprogress nounwind uwtable
define void @_ZN3gmx25AnalysisDataFrameAverager8addValueEif(ptr noundef nonnull align 8 dereferenceable(25) %0, i32 noundef %1, float noundef %2) #1 align 2 {
  %4 = alloca ptr, align 8
  %5 = alloca i32, align 4
  %6 = alloca float, align 4
  %7 = alloca ptr, align 8
  %8 = alloca double, align 8
  store ptr %0, ptr %4, align 8
  store i32 %1, ptr %5, align 4
  store float %2, ptr %6, align 4
  %9 = load ptr, ptr %4, align 8
  %10 = getelementptr inbounds %"class.gmx::AnalysisDataFrameAverager", ptr %9, i32 0, i32 0
  %11 = load i32, ptr %5, align 4
  %12 = sext i32 %11 to i64
  %13 = call noundef nonnull align 8 dereferenceable(20) ptr @_ZNSt6vectorIN3gmx25AnalysisDataFrameAverager11AverageItemESaIS2_EEixEm(ptr noundef nonnull align 8 dereferenceable(24) %10, i64 noundef %12) #9
  store ptr %13, ptr %7, align 8
  %14 = load float, ptr %6, align 4
  %15 = fpext float %14 to double
  %16 = load ptr, ptr %7, align 8
  %17 = getelementptr inbounds %"struct.gmx::AnalysisDataFrameAverager::AverageItem", ptr %16, i32 0, i32 0
  %18 = load double, ptr %17, align 8
  %19 = fsub double %15, %18
  store double %19, ptr %8, align 8
  %20 = load ptr, ptr %7, align 8
  %21 = getelementptr inbounds %"struct.gmx::AnalysisDataFrameAverager::AverageItem", ptr %20, i32 0, i32 2
  %22 = load i32, ptr %21, align 8
  %23 = add nsw i32 %22, 1
  store i32 %23, ptr %21, align 8
  %24 = load double, ptr %8, align 8
  %25 = load ptr, ptr %7, align 8
  %26 = getelementptr inbounds %"struct.gmx::AnalysisDataFrameAverager::AverageItem", ptr %25, i32 0, i32 2
  %27 = load i32, ptr %26, align 8
  %28 = sitofp i32 %27 to double
  %29 = fdiv double %24, %28
  %30 = load ptr, ptr %7, align 8
  %31 = getelementptr inbounds %"struct.gmx::AnalysisDataFrameAverager::AverageItem", ptr %30, i32 0, i32 0
  %32 = load double, ptr %31, align 8
  %33 = fadd double %32, %29
  store double %33, ptr %31, align 8
  %34 = load double, ptr %8, align 8
  %35 = load float, ptr %6, align 4
  %36 = fpext float %35 to double
  %37 = load ptr, ptr %7, align 8
  %38 = getelementptr inbounds %"struct.gmx::AnalysisDataFrameAverager::AverageItem", ptr %37, i32 0, i32 0
  %39 = load double, ptr %38, align 8
  %40 = fsub double %36, %39
  %41 = load ptr, ptr %7, align 8
  %42 = getelementptr inbounds %"struct.gmx::AnalysisDataFrameAverager::AverageItem", ptr %41, i32 0, i32 1
  %43 = load double, ptr %42, align 8
  %44 = call double @llvm.fmuladd.f64(double %34, double %40, double %43)
  store double %44, ptr %42, align 8
  ret void
}