; Function Attrs: mustprogress nofree norecurse nosync nounwind willreturn memory(readwrite, inaccessiblemem: none) uwtable
define void @_ZN3gmx25AnalysisDataFrameAverager8addValueEif(ptr nocapture noundef nonnull readonly align 8 dereferenceable(25) %0, i32 noundef %1, float noundef %2) local_unnamed_addr #5 align 2 {
  %4 = sext i32 %1 to i64
  %5 = load ptr, ptr %0, align 8
  %6 = getelementptr inbounds %"struct.gmx::AnalysisDataFrameAverager::AverageItem", ptr %5, i64 %4
  %7 = fpext float %2 to double
  %8 = load double, ptr %6, align 8
  %9 = fsub double %7, %8
  %10 = getelementptr inbounds i8, ptr %6, i64 16
  %11 = load i32, ptr %10, align 8
  %12 = add nsw i32 %11, 1
  store i32 %12, ptr %10, align 8
  %13 = sitofp i32 %12 to double
  %14 = fdiv double %9, %13
  %15 = fadd double %8, %14
  store double %15, ptr %6, align 8
  %16 = fsub double %7, %15
  %17 = getelementptr inbounds i8, ptr %6, i64 8
  %18 = load double, ptr %17, align 8
  %19 = tail call double @llvm.fmuladd.f64(double %9, double %16, double %18)
  store double %19, ptr %17, align 8
  ret void
}